target datalayout = "e-m:e-p270:32:32-p271:32:32-p272:64:64-i64:64-i128:128-f80:128-n8:16:32:64-S128"
target triple = "x86_64-pc-linux-gnu"

%struct.ASNItem = type { i8, i8, i8, i8 }
%struct.ASNGetData = type { i32, i32, %union.anon.0, i8, i8 }
%union.anon.0 = type { %struct.anon.3 }
%struct.anon.3 = type { ptr, i32, i32, i32 }

@algoIdASN = internal constant [3 x %struct.ASNItem] [%struct.ASNItem { i8 0, i8 16, i8 3, i8 0 }, %struct.ASNItem { i8 1, i8 6, i8 0, i8 0 }, %struct.ASNItem { i8 1, i8 5, i8 0, i8 1 }], align 1

; Function Attrs: nounwind uwtable
define internal i32 @GetAlgoIdImpl(ptr noundef %0, ptr noundef %1, ptr noundef %2, i32 noundef %3, i32 noundef %4, ptr noundef %5) #0 {
  %7 = alloca ptr, align 8
  %8 = alloca ptr, align 8
  %9 = alloca ptr, align 8
  %10 = alloca i32, align 4
  %11 = alloca i32, align 4
  %12 = alloca ptr, align 8
  %13 = alloca [3 x %struct.ASNGetData], align 16
  %14 = alloca i32, align 4
  store ptr %0, ptr %7, align 8, !tbaa !7
  store ptr %1, ptr %8, align 8, !tbaa !18
  store ptr %2, ptr %9, align 8, !tbaa !18
  store i32 %3, ptr %10, align 4, !tbaa !3
  store i32 %4, ptr %11, align 4, !tbaa !3
  store ptr %5, ptr %12, align 8, !tbaa !7
  call void @llvm.lifetime.start.p0(i64 120, ptr %13) #9
  call void @llvm.lifetime.start.p0(i64 4, ptr %14) #9
  store i32 0, ptr %14, align 4, !tbaa !3
  br label %15

15:                                               ; preds = %6
  br label %16

16:                                               ; preds = %15
  br label %17

17:                                               ; preds = %16
  %18 = getelementptr inbounds [3 x %struct.ASNGetData], ptr %13, i64 0, i64 0
  call void @llvm.memset.p0.i64(ptr align 16 %18, i8 0, i64 120, i1 false)
  %19 = load i32, ptr %14, align 4, !tbaa !3
  %20 = icmp eq i32 %19, 0
  br i1 %20, label %21, label %31

21:                                               ; preds = %17
  %22 = load i32, ptr %10, align 4, !tbaa !3
  %23 = getelementptr inbounds [3 x %struct.ASNGetData], ptr %13, i64 0, i64 1
  %24 = getelementptr inbounds nuw %struct.ASNGetData, ptr %23, i32 0, i32 2
  %25 = getelementptr inbounds nuw %struct.anon.3, ptr %24, i32 0, i32 2
  store i32 %22, ptr %25, align 4, !tbaa !10
  %26 = getelementptr inbounds [3 x %struct.ASNGetData], ptr %13, i64 0, i64 0
  %27 = load ptr, ptr %7, align 8, !tbaa !7
  %28 = load ptr, ptr %8, align 8, !tbaa !18
  %29 = load i32, ptr %11, align 4, !tbaa !3
  %30 = call i32 @GetASN_Items(ptr noundef @algoIdASN, ptr noundef %26, i32 noundef 3, i32 noundef 0, ptr noundef %27, ptr noundef %28, i32 noundef %29)
  store i32 %30, ptr %14, align 4, !tbaa !3
  br label %31

31:                                               ; preds = %21, %17
  %32 = load i32, ptr %14, align 4, !tbaa !3
  %33 = icmp eq i32 %32, 0
  br i1 %33, label %34, label %51

34:                                               ; preds = %31
  %35 = getelementptr inbounds [3 x %struct.ASNGetData], ptr %13, i64 0, i64 1
  %36 = getelementptr inbounds nuw %struct.ASNGetData, ptr %35, i32 0, i32 2
  %37 = getelementptr inbounds nuw %struct.anon.3, ptr %36, i32 0, i32 3
  %38 = load i32, ptr %37, align 8, !tbaa !10
  %39 = load ptr, ptr %9, align 8, !tbaa !18
  store i32 %38, ptr %39, align 4, !tbaa !3
  %40 = load ptr, ptr %12, align 8, !tbaa !7
  %41 = icmp ne ptr %40, null
  br i1 %41, label %42, label %50

42:                                               ; preds = %34
  %43 = getelementptr inbounds [3 x %struct.ASNGetData], ptr %13, i64 0, i64 2
  %44 = getelementptr inbounds nuw %struct.ASNGetData, ptr %43, i32 0, i32 4
  %45 = load i8, ptr %44, align 1, !tbaa !45
  %46 = zext i8 %45 to i32
  %47 = icmp eq i32 %46, 5
  br i1 %47, label %48, label %50

48:                                               ; preds = %42
  %49 = load ptr, ptr %12, align 8, !tbaa !7
  store i8 0, ptr %49, align 1, !tbaa !10
  br label %50

50:                                               ; preds = %48, %42, %34
  br label %51

51:                                               ; preds = %50, %31
  br label %52

52:                                               ; preds = %51
  br label %53

53:                                               ; preds = %52
  br label %54

54:                                               ; preds = %53
  %55 = load i32, ptr %14, align 4, !tbaa !3
  call void @llvm.lifetime.end.p0(i64 4, ptr %14) #9
  call void @llvm.lifetime.end.p0(i64 120, ptr %13) #9
  ret i32 %55
}

; Function Attrs: nounwind uwtable
define i32 @GetAlgoId(ptr noundef %0, ptr noundef %1, ptr noundef %2, i32 noundef %3, i32 noundef %4) #0 {
  %6 = alloca ptr, align 8
  %7 = alloca ptr, align 8
  %8 = alloca ptr, align 8
  %9 = alloca i32, align 4
  %10 = alloca i32, align 4
  store ptr %0, ptr %6, align 8, !tbaa !7
  store ptr %1, ptr %7, align 8, !tbaa !18
  store ptr %2, ptr %8, align 8, !tbaa !18
  store i32 %3, ptr %9, align 4, !tbaa !3
  store i32 %4, ptr %10, align 4, !tbaa !3
  %11 = load ptr, ptr %6, align 8, !tbaa !7
  %12 = load ptr, ptr %7, align 8, !tbaa !18
  %13 = load ptr, ptr %8, align 8, !tbaa !18
  %14 = load i32, ptr %9, align 4, !tbaa !3
  %15 = load i32, ptr %10, align 4, !tbaa !3
  %16 = call i32 @GetAlgoIdImpl(ptr noundef %11, ptr noundef %12, ptr noundef %13, i32 noundef %14, i32 noundef %15, ptr noundef null)
  ret i32 %16
}